(dp0
S'1'
p1
(dp2
S'path'
p3
S'/mnt/cheshire/002/1'
p4
sS'host'
p5
S'10.2.209.198'
p6
sS'online'
p7
S'"2012-07-04 20:42:53"'
p8
sS'id'
p9
g1
sS'port'
p10
S'1240'
p11
ssS'0'
p12
(dp13
g3
S'/mnt/cheshire/000/0'
p14
sg5
S'10.108.25.74'
p15
sg7
S'"2012-07-04 20:42:47"'
p16
sg9
g12
sg10
S'1239'
p17
ssS'3'
p18
(dp19
g3
S'/mnt/cheshire/004/1'
p20
sg5
S'10.46.145.187'
p21
sg7
S'"2012-07-04 20:43:05"'
p22
sg9
g18
sg10
S'1240'
p23
ssS'2'
p24
(dp25
g3
S'/mnt/cheshire/003/1'
p26
sg5
S'10.193.97.171'
p27
sg7
S'"2012-07-04 20:42:59"'
p28
sg9
g24
sg10
S'1240'
p29
ssS'5'
p30
(dp31
g3
S'/mnt/cheshire/006/1'
p32
sg5
S'10.72.41.252'
p33
sg7
S'"2012-07-04 20:43:17"'
p34
sg9
g30
sg10
S'1240'
p35
ssS'4'
p36
(dp37
g3
S'/mnt/cheshire/005/1'
p38
sg5
S'10.210.95.111'
p39
sg7
S'"2012-07-04 20:43:11"'
p40
sg9
g36
sg10
S'1240'
p41
ssS'7'
p42
(dp43
g3
S'/mnt/cheshire/008/1'
p44
sg5
S'10.72.250.34'
p45
sg7
S'"2012-07-04 20:43:30"'
p46
sg9
g42
sg10
S'1240'
p47
ssS'6'
p48
(dp49
g3
S'/mnt/cheshire/007/1'
p50
sg5
S'10.108.35.133'
p51
sg7
S'"2012-07-04 20:43:24"'
p52
sg9
g48
sg10
S'1240'
p53
ss.